; Function Attrs: mustprogress uwtable
define hidden noundef zeroext i1 @_ZN11proto_model4evalEP4exprR7obj_refIS0_11ast_managerEb(ptr noundef nonnull align 8 dereferenceable(177) %this, ptr noundef %e, ptr noundef nonnull align 8 dereferenceable(16) %result, i1 noundef zeroext %model_completion) local_unnamed_addr #3 align 2 personality ptr @__gxx_personality_v0 {
entry:
  %m_eval = getelementptr inbounds i8, ptr %this, i64 152
  tail call void @_ZN15model_evaluator20set_model_completionEb(ptr noundef nonnull align 8 dereferenceable(8) %m_eval, i1 noundef zeroext %model_completion)
  tail call void @_ZN15model_evaluator27set_expand_array_equalitiesEb(ptr noundef nonnull align 8 dereferenceable(8) %m_eval, i1 noundef zeroext false)
  invoke void @_ZN15model_evaluatorclEP4exprR7obj_refIS0_11ast_managerE(ptr noundef nonnull align 8 dereferenceable(8) %m_eval, ptr noundef %e, ptr noundef nonnull align 8 dereferenceable(16) %result)
          to label %return unwind label %lpad

lpad:                                             ; preds = %entry
  %0 = landingpad { ptr, i32 }
          catch ptr @_ZTI18rewriter_exception
  %1 = extractvalue { ptr, i32 } %0, 1
  %2 = tail call i32 @llvm.eh.typeid.for(ptr nonnull @_ZTI18rewriter_exception) #18
  %matches = icmp eq i32 %1, %2
  br i1 %matches, label %catch, label %eh.resume

catch:                                            ; preds = %lpad
  %3 = extractvalue { ptr, i32 } %0, 0
  %4 = tail call ptr @__cxa_begin_catch(ptr %3) #18
  tail call void @__cxa_end_catch()
  br label %return

return:                                           ; preds = %entry, %catch
  %retval.0 = phi i1 [ false, %catch ], [ true, %entry ]
  ret i1 %retval.0

eh.resume:                                        ; preds = %lpad
  resume { ptr, i32 } %0
}